; Function Attrs: nounwind uwtable
define zeroext range(i8 0, 2) i8 @l_Lean_Elab_Term_hasCDot(ptr noundef %0) local_unnamed_addr #0 {
  %2 = ptrtoint ptr %0 to i64
  %3 = and i64 %2, 1
  %.not.i35 = icmp eq i64 %3, 0
  br i1 %.not.i35, label %7, label %4

4:                                                ; preds = %1
  %5 = lshr i64 %2, 1
  %6 = trunc i64 %5 to i32
  br label %lean_obj_tag.exit

7:                                                ; preds = %1
  %8 = getelementptr i8, ptr %0, i64 4
  %.val.i = load i32, ptr %8, align 4
  %9 = lshr i32 %.val.i, 24
  br label %lean_obj_tag.exit

lean_obj_tag.exit:                                ; preds = %4, %7
  %.0.i36 = phi i32 [ %6, %4 ], [ %9, %7 ]
  %10 = icmp eq i32 %.0.i36, 1
  br i1 %10, label %11, label %lean_dec.exit32

11:                                               ; preds = %lean_obj_tag.exit
  %12 = getelementptr inbounds nuw i8, ptr %0, i64 16
  %13 = load ptr, ptr %12, align 8, !tbaa !10
  %14 = getelementptr inbounds nuw i8, ptr %0, i64 24
  %15 = load ptr, ptr %14, align 8, !tbaa !10
  %16 = load ptr, ptr @l___private_Lean_Elab_BuiltinNotation_0__Lean_Elab_Term_elabParserMacroAux___closed__22, align 8, !tbaa !10
  %17 = tail call zeroext i8 @lean_name_eq(ptr noundef %13, ptr noundef %16) #6
  %18 = icmp eq i8 %17, 0
  br i1 %18, label %19, label %lean_dec.exit32

19:                                               ; preds = %11
  %20 = load ptr, ptr @l_Lean_Elab_Term_hasCDot___closed__2, align 8, !tbaa !10
  %21 = tail call zeroext i8 @lean_name_eq(ptr noundef %13, ptr noundef %20) #6
  %22 = icmp eq i8 %21, 0
  br i1 %22, label %23, label %lean_dec.exit32

23:                                               ; preds = %19
  %24 = load ptr, ptr @l_Lean_Elab_Term_hasCDot___closed__4, align 8, !tbaa !10
  %25 = tail call zeroext i8 @lean_name_eq(ptr noundef %13, ptr noundef %24) #6
  %26 = icmp eq i8 %25, 0
  br i1 %26, label %27, label %lean_dec.exit32

27:                                               ; preds = %23
  %28 = load ptr, ptr @l_Lean_Elab_Term_hasCDot___closed__6, align 8, !tbaa !10
  %29 = tail call zeroext i8 @lean_name_eq(ptr noundef %13, ptr noundef %28) #6
  %30 = icmp eq i8 %29, 0
  br i1 %30, label %lean_nat_lt.exit, label %lean_dec.exit32

lean_nat_lt.exit:                                 ; preds = %27
  %31 = getelementptr i8, ptr %15, i64 8
  %.val = load i64, ptr %31, align 8, !tbaa !12
  %.mask = and i64 %.val, 9223372036854775807
  %.not = icmp eq i64 %.mask, 0
  br i1 %.not, label %lean_dec.exit32, label %lean_dec.exit

lean_dec.exit:                                    ; preds = %lean_nat_lt.exit
  %32 = tail call zeroext i8 @l_Array_anyMUnsafe_any___at_Lean_Elab_Term_hasCDot___spec__1(ptr noundef nonnull %15, i64 noundef 0, i64 noundef %.mask)
  br label %lean_dec.exit32

lean_dec.exit32:                                  ; preds = %lean_nat_lt.exit, %lean_obj_tag.exit, %19, %27, %lean_dec.exit, %23, %11
  %.5 = phi i8 [ %32, %lean_dec.exit ], [ 1, %27 ], [ 0, %23 ], [ 0, %19 ], [ 0, %11 ], [ 0, %lean_obj_tag.exit ], [ 0, %lean_nat_lt.exit ]
  ret i8 %.5
}